target datalayout = "e-m:e-p270:32:32-p271:32:32-p272:64:64-i64:64-i128:128-f80:128-n8:16:32:64-S128"
target triple = "x86_64-pc-linux-gnu"

%struct.pm_lex_mode = type { i32, %union.anon, ptr }
%union.anon = type { %struct.anon.3 }
%struct.anon.3 = type { %struct.pm_heredoc_lex_mode_t, ptr, ptr, i8 }
%struct.pm_heredoc_lex_mode_t = type { ptr, i64, i32, i32 }
%struct.pm_parser = type { i32, i32, i32, i32, i32, i32, i32, %struct.anon, ptr, ptr, %struct.pm_token_t, %struct.pm_token_t, ptr, ptr, %struct.pm_list_t, %struct.pm_list_t, %struct.pm_location_t, %struct.pm_list_t, %struct.pm_list_t, ptr, ptr, ptr, ptr, ptr, ptr, ptr, %struct.pm_string_t, %struct.pm_constant_pool_t, %struct.pm_newline_list_t, i16, %struct.pm_string_t, i32, ptr, ptr, i32, i8, i8, i8, i8, i8, i8, i8, i8, i8, i8, i8, i8, i8 }
%struct.anon = type { ptr, [4 x %struct.pm_lex_mode], i64 }
%struct.pm_token_t = type { i32, ptr, ptr }
%struct.pm_location_t = type { ptr, ptr }
%struct.pm_list_t = type { i64, ptr, ptr }
%struct.pm_constant_pool_t = type { ptr, ptr, i32, i32 }
%struct.pm_newline_list_t = type { ptr, i64, i64, ptr }
%struct.pm_string_t = type { ptr, i64, i32 }
%struct.pm_constant_id_list_t = type { i64, i64, ptr }
%struct.pm_node = type { i16, i16, i32, %struct.pm_location_t }
%struct.pm_arguments_t = type { %struct.pm_location_t, ptr, %struct.pm_location_t, ptr, i8 }
%struct.pm_forwarding_super_node = type { %struct.pm_node, ptr }
%struct.pm_block_node = type { %struct.pm_node, %struct.pm_constant_id_list_t, ptr, ptr, %struct.pm_location_t, %struct.pm_location_t }

@stderr = external global ptr, align 8
@.str.94 = private unnamed_addr constant [29 x i8] c"Failed to allocate %d bytes\0A\00", align 1

; Function Attrs: inlinehint nounwind sspstrong uwtable
define internal ptr @pm_node_alloc(ptr noundef %0, i64 noundef %1) #7 {
  %3 = alloca ptr, align 8
  %4 = alloca i64, align 8
  %5 = alloca ptr, align 8
  store ptr %0, ptr %3, align 8, !tbaa !7
  store i64 %1, ptr %4, align 8, !tbaa !14
  call void @llvm.lifetime.start.p0(i64 8, ptr %5) #15
  %6 = load i64, ptr %4, align 8, !tbaa !14
  %7 = call noalias ptr @calloc(i64 noundef 1, i64 noundef %6) #18
  store ptr %7, ptr %5, align 8, !tbaa !57
  %8 = load ptr, ptr %5, align 8, !tbaa !57
  %9 = icmp eq ptr %8, null
  br i1 %9, label %10, label %15

10:                                               ; preds = %2
  %11 = load ptr, ptr @stderr, align 8, !tbaa !452
  %12 = load i64, ptr %4, align 8, !tbaa !14
  %13 = trunc i64 %12 to i32
  %14 = call i32 (ptr, i32, ptr, ...) @__fprintf_chk(ptr noundef %11, i32 noundef 1, ptr noundef @.str.94, i32 noundef %13)
  call void @abort() #19
  unreachable

15:                                               ; preds = %2
  %16 = load ptr, ptr %5, align 8, !tbaa !57
  call void @llvm.lifetime.end.p0(i64 8, ptr %5) #15
  ret ptr %16
}

; Function Attrs: nounwind sspstrong uwtable
define internal ptr @pm_forwarding_super_node_create(ptr noundef %0, ptr noundef %1, ptr noundef %2) #0 {
  %4 = alloca ptr, align 8
  %5 = alloca ptr, align 8
  %6 = alloca ptr, align 8
  %7 = alloca ptr, align 8
  %8 = alloca ptr, align 8
  %9 = alloca %struct.pm_forwarding_super_node, align 8
  store ptr %0, ptr %4, align 8, !tbaa !7
  store ptr %1, ptr %5, align 8, !tbaa !57
  store ptr %2, ptr %6, align 8, !tbaa !57
  call void @llvm.lifetime.start.p0(i64 8, ptr %7) #15
  %10 = load ptr, ptr %4, align 8, !tbaa !7
  %11 = call ptr @pm_node_alloc(ptr noundef %10, i64 noundef 32)
  store ptr %11, ptr %7, align 8, !tbaa !655
  call void @llvm.lifetime.start.p0(i64 8, ptr %8) #15
  store ptr null, ptr %8, align 8, !tbaa !450
  %12 = load ptr, ptr %6, align 8, !tbaa !57
  %13 = getelementptr inbounds nuw %struct.pm_arguments_t, ptr %12, i32 0, i32 3
  %14 = load ptr, ptr %13, align 8, !tbaa !357
  %15 = icmp ne ptr %14, null
  br i1 %15, label %16, label %20

16:                                               ; preds = %3
  %17 = load ptr, ptr %6, align 8, !tbaa !57
  %18 = getelementptr inbounds nuw %struct.pm_arguments_t, ptr %17, i32 0, i32 3
  %19 = load ptr, ptr %18, align 8, !tbaa !357
  store ptr %19, ptr %8, align 8, !tbaa !450
  br label %20

20:                                               ; preds = %16, %3
  %21 = load ptr, ptr %7, align 8, !tbaa !655
  %22 = getelementptr inbounds nuw %struct.pm_forwarding_super_node, ptr %9, i32 0, i32 0
  %23 = getelementptr inbounds nuw %struct.pm_node, ptr %22, i32 0, i32 0
  store i16 58, ptr %23, align 8, !tbaa !206
  %24 = getelementptr inbounds nuw %struct.pm_node, ptr %22, i32 0, i32 1
  store i16 0, ptr %24, align 2, !tbaa !222
  %25 = getelementptr inbounds nuw %struct.pm_node, ptr %22, i32 0, i32 2
  %26 = load ptr, ptr %4, align 8, !tbaa !7
  %27 = getelementptr inbounds nuw %struct.pm_parser, ptr %26, i32 0, i32 0
  %28 = load i32, ptr %27, align 8, !tbaa !238
  %29 = add i32 %28, 1
  store i32 %29, ptr %27, align 8, !tbaa !238
  store i32 %29, ptr %25, align 4, !tbaa !239
  %30 = getelementptr inbounds nuw %struct.pm_node, ptr %22, i32 0, i32 3
  %31 = getelementptr inbounds nuw %struct.pm_location_t, ptr %30, i32 0, i32 0
  %32 = load ptr, ptr %5, align 8, !tbaa !57
  %33 = getelementptr inbounds nuw %struct.pm_token_t, ptr %32, i32 0, i32 1
  %34 = load ptr, ptr %33, align 8, !tbaa !43
  store ptr %34, ptr %31, align 8, !tbaa !152
  %35 = getelementptr inbounds nuw %struct.pm_location_t, ptr %30, i32 0, i32 1
  %36 = load ptr, ptr %8, align 8, !tbaa !450
  %37 = icmp ne ptr %36, null
  br i1 %37, label %38, label %44

38:                                               ; preds = %20
  %39 = load ptr, ptr %8, align 8, !tbaa !450
  %40 = getelementptr inbounds nuw %struct.pm_block_node, ptr %39, i32 0, i32 0
  %41 = getelementptr inbounds nuw %struct.pm_node, ptr %40, i32 0, i32 3
  %42 = getelementptr inbounds nuw %struct.pm_location_t, ptr %41, i32 0, i32 1
  %43 = load ptr, ptr %42, align 8, !tbaa !657
  br label %48

44:                                               ; preds = %20
  %45 = load ptr, ptr %5, align 8, !tbaa !57
  %46 = getelementptr inbounds nuw %struct.pm_token_t, ptr %45, i32 0, i32 2
  %47 = load ptr, ptr %46, align 8, !tbaa !44
  br label %48

48:                                               ; preds = %44, %38
  %49 = phi ptr [ %43, %38 ], [ %47, %44 ]
  store ptr %49, ptr %35, align 8, !tbaa !153
  %50 = getelementptr inbounds nuw %struct.pm_forwarding_super_node, ptr %9, i32 0, i32 1
  %51 = load ptr, ptr %8, align 8, !tbaa !450
  store ptr %51, ptr %50, align 8, !tbaa !659
  call void @llvm.memcpy.p0.p0.i64(ptr align 8 %21, ptr align 8 %9, i64 32, i1 false), !tbaa.struct !661
  %52 = load ptr, ptr %7, align 8, !tbaa !655
  call void @llvm.lifetime.end.p0(i64 8, ptr %8) #15
  call void @llvm.lifetime.end.p0(i64 8, ptr %7) #15
  ret ptr %52
}